target datalayout = "e-m:e-p270:32:32-p271:32:32-p272:64:64-i64:64-i128:128-f80:128-n8:16:32:64-S128"
target triple = "x86_64-pc-linux-gnu"

%"class.sat::asymm_branch" = type { ptr, %class.params_ref, i64, %class.random_gen, i32, i32, i8, i32, i32, i8, i8, i64, i32, i32, i32, %class.svector, %class.svector, %class.svector.0, %class.svector.0, %class.svector, %class.svector }
%class.params_ref = type { ptr }
%class.random_gen = type { i32 }
%class.svector.0 = type { %class.vector.1 }
%class.vector.1 = type { ptr }
%class.svector = type { %class.vector }
%class.vector = type { ptr }

; Function Attrs: mustprogress nounwind uwtable
define hidden void @_ZN3sat12asymm_branch16reset_statisticsEv(ptr noundef nonnull align 8 dereferenceable(128) %0) #5 align 2 {
  %2 = alloca ptr, align 8
  store ptr %0, ptr %2, align 8, !tbaa !3
  %3 = load ptr, ptr %2, align 8
  %4 = getelementptr inbounds nuw %"class.sat::asymm_branch", ptr %3, i32 0, i32 12
  store i32 0, ptr %4, align 8, !tbaa !42
  %5 = getelementptr inbounds nuw %"class.sat::asymm_branch", ptr %3, i32 0, i32 13
  store i32 0, ptr %5, align 4, !tbaa !43
  %6 = getelementptr inbounds nuw %"class.sat::asymm_branch", ptr %3, i32 0, i32 14
  store i32 0, ptr %6, align 8, !tbaa !44
  ret void
}