; Function Attrs: mustprogress nofree norecurse nosync nounwind willreturn memory(argmem: write) uwtable
define hidden void @_ZN3sat12asymm_branch16reset_statisticsEv(ptr noundef nonnull writeonly align 8 captures(none) dereferenceable(128) initializes((64, 76)) %0) local_unnamed_addr #4 align 2 {
  %2 = getelementptr inbounds nuw i8, ptr %0, i64 64
  store i32 0, ptr %2, align 8, !tbaa !23
  %3 = getelementptr inbounds nuw i8, ptr %0, i64 68
  store i32 0, ptr %3, align 4, !tbaa !24
  %4 = getelementptr inbounds nuw i8, ptr %0, i64 72
  store i32 0, ptr %4, align 8, !tbaa !25
  ret void
}